; Function Attrs: mustprogress nounwind uwtable
define hidden void @_ZN13LIR_Assembler15monitor_addressEi7LIR_Opr(ptr nocapture noundef nonnull readonly align 8 dereferenceable(96) %0, i32 noundef %1, i64 %2) local_unnamed_addr #0 align 2 {
  %4 = alloca %class.Address, align 8
  %5 = alloca %class.LIR_Opr, align 8
  %6 = alloca %class.Address, align 8
  store i64 %2, ptr %5, align 8
  %7 = load ptr, ptr %0, align 8
  %8 = call i32 @_ZNK7LIR_Opr11as_registerEv(ptr noundef nonnull align 8 dereferenceable(8) %5) #15
  %9 = getelementptr inbounds i8, ptr %0, i64 24
  %10 = load ptr, ptr %9, align 8
  %11 = call noundef i32 @_ZNK8FrameMap26sp_offset_for_monitor_lockEi(ptr noundef nonnull align 8 dereferenceable(40) %10, i32 noundef %1) #15, !noalias !24
  call void @_ZNK8FrameMap16make_new_addressE8ByteSize(ptr dead_on_unwind nonnull writable sret(%class.Address) align 8 %6, ptr noundef nonnull align 8 dereferenceable(40) %10, i32 noundef %11) #15
  call void @llvm.lifetime.start.p0(i64 64, ptr nonnull %4)
  call void @llvm.memcpy.p0.p0.i64(ptr noundef nonnull align 8 dereferenceable(21) %4, ptr noundef nonnull align 8 dereferenceable(21) %6, i64 21, i1 false)
  %12 = getelementptr inbounds i8, ptr %4, i64 24
  %13 = getelementptr inbounds i8, ptr %6, i64 24
  %14 = load ptr, ptr %13, align 8
  %15 = getelementptr inbounds i8, ptr %14, i64 16
  %16 = load ptr, ptr %15, align 8
  call void %16(ptr noundef nonnull align 8 dereferenceable(20) %13, ptr noundef nonnull align 8 dereferenceable(40) %12) #15
  call void @_ZN9Assembler3leaE8Register7Address(ptr noundef nonnull align 8 dereferenceable(40) %7, i32 %8, ptr noundef nonnull %4) #15
  call void @llvm.lifetime.end.p0(i64 64, ptr nonnull %4)
  ret void
}